target datalayout = "e-m:e-p270:32:32-p271:32:32-p272:64:64-i64:64-i128:128-f80:128-n8:16:32:64-S128"
target triple = "x86_64-pc-linux-gnu"

%struct.SwsImg = type { i32, [4 x ptr], [4 x i32] }
%struct.SwsGraph = type { ptr, ptr, i32, i8, i8, ptr, i32, %struct.SwsContext, %struct.SwsFormat, %struct.SwsFormat, i32, %struct.anon }
%struct.SwsContext = type { ptr, ptr, i32, [2 x double], i32, i32, i32, i32, i32, i32, i32, i32, i32, i32, i32, i32, i32, i32, i32, i32, i32 }
%struct.SwsFormat = type { i32, i32, i32, i32, i32, i32, i32, ptr, %struct.SwsColor }
%struct.SwsColor = type { i32, i32, %struct.AVPrimaryCoefficients, %struct.AVRational, %struct.AVRational, %struct.AVRational, %struct.AVRational }
%struct.AVPrimaryCoefficients = type { %struct.AVCIExy, %struct.AVCIExy, %struct.AVCIExy }
%struct.AVCIExy = type { %struct.AVRational, %struct.AVRational }
%struct.AVRational = type { i32, i32 }
%struct.anon = type { ptr, %struct.SwsImg, %struct.SwsImg }

; Function Attrs: inlinehint nounwind uwtable
define internal void @ff_color_update_dynamic(ptr noundef %0, ptr noundef %1) #4 {
  %3 = alloca ptr, align 8
  %4 = alloca ptr, align 8
  store ptr %0, ptr %3, align 8, !tbaa !81
  store ptr %1, ptr %4, align 8, !tbaa !81
  %5 = load ptr, ptr %3, align 8, !tbaa !81
  %6 = getelementptr inbounds nuw %struct.SwsColor, ptr %5, i32 0, i32 5
  %7 = load ptr, ptr %4, align 8, !tbaa !81
  %8 = getelementptr inbounds nuw %struct.SwsColor, ptr %7, i32 0, i32 5
  call void @llvm.memcpy.p0.p0.i64(ptr align 4 %6, ptr align 4 %8, i64 8, i1 false), !tbaa.struct !83
  %9 = load ptr, ptr %3, align 8, !tbaa !81
  %10 = getelementptr inbounds nuw %struct.SwsColor, ptr %9, i32 0, i32 6
  %11 = load ptr, ptr %4, align 8, !tbaa !81
  %12 = getelementptr inbounds nuw %struct.SwsColor, ptr %11, i32 0, i32 6
  call void @llvm.memcpy.p0.p0.i64(ptr align 4 %10, ptr align 4 %12, i64 8, i1 false), !tbaa.struct !83
  ret void
}

; Function Attrs: nounwind uwtable
define void @ff_sws_graph_update_metadata(ptr noundef %0, ptr noundef %1) #0 {
  %3 = alloca ptr, align 8
  %4 = alloca ptr, align 8
  store ptr %0, ptr %3, align 8, !tbaa !4
  store ptr %1, ptr %4, align 8, !tbaa !81
  %5 = load ptr, ptr %4, align 8, !tbaa !81
  %6 = icmp ne ptr %5, null
  br i1 %6, label %8, label %7

7:                                                ; preds = %2
  br label %13

8:                                                ; preds = %2
  %9 = load ptr, ptr %3, align 8, !tbaa !4
  %10 = getelementptr inbounds nuw %struct.SwsGraph, ptr %9, i32 0, i32 8
  %11 = getelementptr inbounds nuw %struct.SwsFormat, ptr %10, i32 0, i32 8
  %12 = load ptr, ptr %4, align 8, !tbaa !81
  call void @ff_color_update_dynamic(ptr noundef %11, ptr noundef %12)
  br label %13

13:                                               ; preds = %8, %7
  ret void
}

; Function Attrs: nounwind uwtable
define internal i32 @opts_equal(ptr noundef %0, ptr noundef %1) #0 {
  %3 = alloca ptr, align 8
  %4 = alloca ptr, align 8
  store ptr %0, ptr %3, align 8, !tbaa !42
  store ptr %1, ptr %4, align 8, !tbaa !42
  %5 = load ptr, ptr %3, align 8, !tbaa !42
  %6 = getelementptr inbounds nuw %struct.SwsContext, ptr %5, i32 0, i32 2
  %7 = load i32, ptr %6, align 8, !tbaa !72
  %8 = load ptr, ptr %4, align 8, !tbaa !42
  %9 = getelementptr inbounds nuw %struct.SwsContext, ptr %8, i32 0, i32 2
  %10 = load i32, ptr %9, align 8, !tbaa !72
  %11 = icmp eq i32 %7, %10
  br i1 %11, label %12, label %94

12:                                               ; preds = %2
  %13 = load ptr, ptr %3, align 8, !tbaa !42
  %14 = getelementptr inbounds nuw %struct.SwsContext, ptr %13, i32 0, i32 4
  %15 = load i32, ptr %14, align 8, !tbaa !57
  %16 = load ptr, ptr %4, align 8, !tbaa !42
  %17 = getelementptr inbounds nuw %struct.SwsContext, ptr %16, i32 0, i32 4
  %18 = load i32, ptr %17, align 8, !tbaa !57
  %19 = icmp eq i32 %15, %18
  br i1 %19, label %20, label %94

20:                                               ; preds = %12
  %21 = load ptr, ptr %3, align 8, !tbaa !42
  %22 = getelementptr inbounds nuw %struct.SwsContext, ptr %21, i32 0, i32 5
  %23 = load i32, ptr %22, align 4, !tbaa !73
  %24 = load ptr, ptr %4, align 8, !tbaa !42
  %25 = getelementptr inbounds nuw %struct.SwsContext, ptr %24, i32 0, i32 5
  %26 = load i32, ptr %25, align 4, !tbaa !73
  %27 = icmp eq i32 %23, %26
  br i1 %27, label %28, label %94

28:                                               ; preds = %20
  %29 = load ptr, ptr %3, align 8, !tbaa !42
  %30 = getelementptr inbounds nuw %struct.SwsContext, ptr %29, i32 0, i32 6
  %31 = load i32, ptr %30, align 8, !tbaa !74
  %32 = load ptr, ptr %4, align 8, !tbaa !42
  %33 = getelementptr inbounds nuw %struct.SwsContext, ptr %32, i32 0, i32 6
  %34 = load i32, ptr %33, align 8, !tbaa !74
  %35 = icmp eq i32 %31, %34
  br i1 %35, label %36, label %94

36:                                               ; preds = %28
  %37 = load ptr, ptr %3, align 8, !tbaa !42
  %38 = getelementptr inbounds nuw %struct.SwsContext, ptr %37, i32 0, i32 7
  %39 = load i32, ptr %38, align 4, !tbaa !75
  %40 = load ptr, ptr %4, align 8, !tbaa !42
  %41 = getelementptr inbounds nuw %struct.SwsContext, ptr %40, i32 0, i32 7
  %42 = load i32, ptr %41, align 4, !tbaa !75
  %43 = icmp eq i32 %39, %42
  br i1 %43, label %44, label %94

44:                                               ; preds = %36
  %45 = load ptr, ptr %3, align 8, !tbaa !42
  %46 = getelementptr inbounds nuw %struct.SwsContext, ptr %45, i32 0, i32 17
  %47 = load i32, ptr %46, align 4, !tbaa !76
  %48 = load ptr, ptr %4, align 8, !tbaa !42
  %49 = getelementptr inbounds nuw %struct.SwsContext, ptr %48, i32 0, i32 17
  %50 = load i32, ptr %49, align 4, !tbaa !76
  %51 = icmp eq i32 %47, %50
  br i1 %51, label %52, label %94

52:                                               ; preds = %44
  %53 = load ptr, ptr %3, align 8, !tbaa !42
  %54 = getelementptr inbounds nuw %struct.SwsContext, ptr %53, i32 0, i32 16
  %55 = load i32, ptr %54, align 8, !tbaa !77
  %56 = load ptr, ptr %4, align 8, !tbaa !42
  %57 = getelementptr inbounds nuw %struct.SwsContext, ptr %56, i32 0, i32 16
  %58 = load i32, ptr %57, align 8, !tbaa !77
  %59 = icmp eq i32 %55, %58
  br i1 %59, label %60, label %94

60:                                               ; preds = %52
  %61 = load ptr, ptr %3, align 8, !tbaa !42
  %62 = getelementptr inbounds nuw %struct.SwsContext, ptr %61, i32 0, i32 19
  %63 = load i32, ptr %62, align 4, !tbaa !78
  %64 = load ptr, ptr %4, align 8, !tbaa !42
  %65 = getelementptr inbounds nuw %struct.SwsContext, ptr %64, i32 0, i32 19
  %66 = load i32, ptr %65, align 4, !tbaa !78
  %67 = icmp eq i32 %63, %66
  br i1 %67, label %68, label %94

68:                                               ; preds = %60
  %69 = load ptr, ptr %3, align 8, !tbaa !42
  %70 = getelementptr inbounds nuw %struct.SwsContext, ptr %69, i32 0, i32 18
  %71 = load i32, ptr %70, align 8, !tbaa !79
  %72 = load ptr, ptr %4, align 8, !tbaa !42
  %73 = getelementptr inbounds nuw %struct.SwsContext, ptr %72, i32 0, i32 18
  %74 = load i32, ptr %73, align 8, !tbaa !79
  %75 = icmp eq i32 %71, %74
  br i1 %75, label %76, label %94

76:                                               ; preds = %68
  %77 = load ptr, ptr %3, align 8, !tbaa !42
  %78 = getelementptr inbounds nuw %struct.SwsContext, ptr %77, i32 0, i32 20
  %79 = load i32, ptr %78, align 8, !tbaa !80
  %80 = load ptr, ptr %4, align 8, !tbaa !42
  %81 = getelementptr inbounds nuw %struct.SwsContext, ptr %80, i32 0, i32 20
  %82 = load i32, ptr %81, align 8, !tbaa !80
  %83 = icmp eq i32 %79, %82
  br i1 %83, label %84, label %94

84:                                               ; preds = %76
  %85 = load ptr, ptr %3, align 8, !tbaa !42
  %86 = getelementptr inbounds nuw %struct.SwsContext, ptr %85, i32 0, i32 3
  %87 = getelementptr inbounds [2 x double], ptr %86, i64 0, i64 0
  %88 = load ptr, ptr %4, align 8, !tbaa !42
  %89 = getelementptr inbounds nuw %struct.SwsContext, ptr %88, i32 0, i32 3
  %90 = getelementptr inbounds [2 x double], ptr %89, i64 0, i64 0
  %91 = call i32 @memcmp(ptr noundef %87, ptr noundef %90, i64 noundef 16) #12
  %92 = icmp ne i32 %91, 0
  %93 = xor i1 %92, true
  br label %94

94:                                               ; preds = %84, %76, %68, %60, %52, %44, %36, %28, %20, %12, %2
  %95 = phi i1 [ false, %76 ], [ false, %68 ], [ false, %60 ], [ false, %52 ], [ false, %44 ], [ false, %36 ], [ false, %28 ], [ false, %20 ], [ false, %12 ], [ false, %2 ], [ %93, %84 ]
  %96 = zext i1 %95 to i32
  ret i32 %96
}

; Function Attrs: nounwind uwtable
define i32 @ff_sws_graph_reinit(ptr noundef %0, ptr noundef %1, ptr noundef %2, i32 noundef %3, ptr noundef %4) #0 {
  %6 = alloca i32, align 4
  %7 = alloca ptr, align 8
  %8 = alloca ptr, align 8
  %9 = alloca ptr, align 8
  %10 = alloca i32, align 4
  %11 = alloca ptr, align 8
  %12 = alloca ptr, align 8
  %13 = alloca i32, align 4
  store ptr %0, ptr %7, align 8, !tbaa !42
  store ptr %1, ptr %8, align 8, !tbaa !43
  store ptr %2, ptr %9, align 8, !tbaa !43
  store i32 %3, ptr %10, align 4, !tbaa !9
  store ptr %4, ptr %11, align 8, !tbaa !45
  call void @llvm.lifetime.start.p0(i64 8, ptr %12) #11
  %14 = load ptr, ptr %11, align 8, !tbaa !45
  %15 = load ptr, ptr %14, align 8, !tbaa !4
  store ptr %15, ptr %12, align 8, !tbaa !4
  %16 = load ptr, ptr %12, align 8, !tbaa !4
  %17 = icmp ne ptr %16, null
  br i1 %17, label %18, label %40

18:                                               ; preds = %5
  %19 = load ptr, ptr %12, align 8, !tbaa !4
  %20 = getelementptr inbounds nuw %struct.SwsGraph, ptr %19, i32 0, i32 8
  %21 = load ptr, ptr %9, align 8, !tbaa !43
  %22 = call i32 @ff_fmt_equal(ptr noundef %20, ptr noundef %21)
  %23 = icmp ne i32 %22, 0
  br i1 %23, label %24, label %40

24:                                               ; preds = %18
  %25 = load ptr, ptr %12, align 8, !tbaa !4
  %26 = getelementptr inbounds nuw %struct.SwsGraph, ptr %25, i32 0, i32 9
  %27 = load ptr, ptr %8, align 8, !tbaa !43
  %28 = call i32 @ff_fmt_equal(ptr noundef %26, ptr noundef %27)
  %29 = icmp ne i32 %28, 0
  br i1 %29, label %30, label %40

30:                                               ; preds = %24
  %31 = load ptr, ptr %7, align 8, !tbaa !42
  %32 = load ptr, ptr %12, align 8, !tbaa !4
  %33 = getelementptr inbounds nuw %struct.SwsGraph, ptr %32, i32 0, i32 7
  %34 = call i32 @opts_equal(ptr noundef %31, ptr noundef %33)
  %35 = icmp ne i32 %34, 0
  br i1 %35, label %36, label %40

36:                                               ; preds = %30
  %37 = load ptr, ptr %12, align 8, !tbaa !4
  %38 = load ptr, ptr %9, align 8, !tbaa !43
  %39 = getelementptr inbounds nuw %struct.SwsFormat, ptr %38, i32 0, i32 8
  call void @ff_sws_graph_update_metadata(ptr noundef %37, ptr noundef %39)
  store i32 0, ptr %6, align 4
  store i32 1, ptr %13, align 4
  br label %48

40:                                               ; preds = %30, %24, %18, %5
  %41 = load ptr, ptr %11, align 8, !tbaa !45
  call void @ff_sws_graph_free(ptr noundef %41)
  %42 = load ptr, ptr %7, align 8, !tbaa !42
  %43 = load ptr, ptr %8, align 8, !tbaa !43
  %44 = load ptr, ptr %9, align 8, !tbaa !43
  %45 = load i32, ptr %10, align 4, !tbaa !9
  %46 = load ptr, ptr %11, align 8, !tbaa !45
  %47 = call i32 @ff_sws_graph_create(ptr noundef %42, ptr noundef %43, ptr noundef %44, i32 noundef %45, ptr noundef %46)
  store i32 %47, ptr %6, align 4
  store i32 1, ptr %13, align 4
  br label %48

48:                                               ; preds = %40, %36
  call void @llvm.lifetime.end.p0(i64 8, ptr %12) #11
  %49 = load i32, ptr %6, align 4
  ret i32 %49
}