; Function Attrs: nounwind uwtable
define range(i32 -2147483648, 1) i32 @ff_sws_graph_reinit(ptr noundef %0, ptr noundef readonly captures(none) %1, ptr noundef readonly captures(none) %2, i32 noundef %3, ptr noundef captures(none) %4) local_unnamed_addr #0 {
  %6 = load ptr, ptr %4, align 8, !tbaa !39
  %.not = icmp eq ptr %6, null
  br i1 %.not, label %opts_equal.exit.thread, label %7

7:                                                ; preds = %5
  %8 = getelementptr inbounds nuw i8, ptr %6, i64 152
  %9 = tail call fastcc i32 @ff_fmt_equal(ptr noundef %8, ptr noundef %2)
  %.not17 = icmp eq i32 %9, 0
  br i1 %.not17, label %opts_equal.exit.thread, label %10

10:                                               ; preds = %7
  %11 = getelementptr inbounds nuw i8, ptr %6, i64 280
  %12 = tail call fastcc i32 @ff_fmt_equal(ptr noundef %11, ptr noundef %1)
  %.not18 = icmp eq i32 %12, 0
  br i1 %.not18, label %opts_equal.exit.thread, label %13

13:                                               ; preds = %10
  %14 = getelementptr inbounds nuw i8, ptr %0, i64 16
  %15 = load i32, ptr %14, align 8, !tbaa !78
  %16 = getelementptr inbounds nuw i8, ptr %6, i64 56
  %17 = load i32, ptr %16, align 8, !tbaa !78
  %18 = icmp eq i32 %15, %17
  br i1 %18, label %19, label %opts_equal.exit.thread

19:                                               ; preds = %13
  %20 = getelementptr inbounds nuw i8, ptr %0, i64 40
  %21 = load i32, ptr %20, align 8, !tbaa !52
  %22 = getelementptr inbounds nuw i8, ptr %6, i64 80
  %23 = load i32, ptr %22, align 8, !tbaa !52
  %24 = icmp eq i32 %21, %23
  br i1 %24, label %25, label %opts_equal.exit.thread

25:                                               ; preds = %19
  %26 = getelementptr inbounds nuw i8, ptr %0, i64 44
  %27 = load i32, ptr %26, align 4, !tbaa !79
  %28 = getelementptr inbounds nuw i8, ptr %6, i64 84
  %29 = load i32, ptr %28, align 4, !tbaa !79
  %30 = icmp eq i32 %27, %29
  br i1 %30, label %31, label %opts_equal.exit.thread

31:                                               ; preds = %25
  %32 = getelementptr inbounds nuw i8, ptr %0, i64 48
  %33 = load i32, ptr %32, align 8, !tbaa !80
  %34 = getelementptr inbounds nuw i8, ptr %6, i64 88
  %35 = load i32, ptr %34, align 8, !tbaa !80
  %36 = icmp eq i32 %33, %35
  br i1 %36, label %37, label %opts_equal.exit.thread

37:                                               ; preds = %31
  %38 = getelementptr inbounds nuw i8, ptr %0, i64 52
  %39 = load i32, ptr %38, align 4, !tbaa !81
  %40 = getelementptr inbounds nuw i8, ptr %6, i64 92
  %41 = load i32, ptr %40, align 4, !tbaa !81
  %42 = icmp eq i32 %39, %41
  br i1 %42, label %43, label %opts_equal.exit.thread

43:                                               ; preds = %37
  %44 = getelementptr inbounds nuw i8, ptr %0, i64 92
  %45 = load i32, ptr %44, align 4, !tbaa !82
  %46 = getelementptr inbounds nuw i8, ptr %6, i64 132
  %47 = load i32, ptr %46, align 4, !tbaa !82
  %48 = icmp eq i32 %45, %47
  br i1 %48, label %49, label %opts_equal.exit.thread

49:                                               ; preds = %43
  %50 = getelementptr inbounds nuw i8, ptr %0, i64 88
  %51 = load i32, ptr %50, align 8, !tbaa !83
  %52 = getelementptr inbounds nuw i8, ptr %6, i64 128
  %53 = load i32, ptr %52, align 8, !tbaa !83
  %54 = icmp eq i32 %51, %53
  br i1 %54, label %55, label %opts_equal.exit.thread

55:                                               ; preds = %49
  %56 = getelementptr inbounds nuw i8, ptr %0, i64 100
  %57 = load i32, ptr %56, align 4, !tbaa !84
  %58 = getelementptr inbounds nuw i8, ptr %6, i64 140
  %59 = load i32, ptr %58, align 4, !tbaa !84
  %60 = icmp eq i32 %57, %59
  br i1 %60, label %61, label %opts_equal.exit.thread

61:                                               ; preds = %55
  %62 = getelementptr inbounds nuw i8, ptr %0, i64 96
  %63 = load i32, ptr %62, align 8, !tbaa !85
  %64 = getelementptr inbounds nuw i8, ptr %6, i64 136
  %65 = load i32, ptr %64, align 8, !tbaa !85
  %66 = icmp eq i32 %63, %65
  br i1 %66, label %67, label %opts_equal.exit.thread

67:                                               ; preds = %61
  %68 = getelementptr inbounds nuw i8, ptr %0, i64 104
  %69 = load i32, ptr %68, align 8, !tbaa !61
  %70 = getelementptr inbounds nuw i8, ptr %6, i64 144
  %71 = load i32, ptr %70, align 8, !tbaa !61
  %72 = icmp eq i32 %69, %71
  br i1 %72, label %opts_equal.exit, label %opts_equal.exit.thread

opts_equal.exit:                                  ; preds = %67
  %73 = getelementptr inbounds nuw i8, ptr %0, i64 24
  %74 = getelementptr inbounds nuw i8, ptr %6, i64 64
  %bcmp.i = tail call i32 @bcmp(ptr noundef nonnull readonly dereferenceable(16) %73, ptr noundef nonnull readonly dereferenceable(16) %74, i64 16)
  %.not.i.not = icmp eq i32 %bcmp.i, 0
  br i1 %.not.i.not, label %75, label %opts_equal.exit.thread

75:                                               ; preds = %opts_equal.exit
  %76 = getelementptr inbounds nuw i8, ptr %6, i64 264
  %77 = getelementptr inbounds nuw i8, ptr %2, i64 112
  %78 = load i64, ptr %77, align 4
  store i64 %78, ptr %76, align 4
  %79 = getelementptr inbounds nuw i8, ptr %6, i64 272
  %80 = getelementptr inbounds nuw i8, ptr %2, i64 120
  %81 = load i64, ptr %80, align 4
  store i64 %81, ptr %79, align 4
  br label %83

opts_equal.exit.thread:                           ; preds = %13, %19, %25, %31, %37, %43, %49, %55, %61, %67, %opts_equal.exit, %10, %7, %5
  tail call void @ff_sws_graph_free(ptr noundef nonnull %4)
  %82 = tail call i32 @ff_sws_graph_create(ptr noundef %0, ptr noundef %1, ptr noundef %2, i32 noundef %3, ptr noundef nonnull %4)
  br label %83

83:                                               ; preds = %opts_equal.exit.thread, %75
  %.0 = phi i32 [ 0, %75 ], [ %82, %opts_equal.exit.thread ]
  ret i32 %.0
}